target datalayout = "e-m:e-p270:32:32-p271:32:32-p272:64:64-i64:64-i128:128-f80:128-n8:16:32:64-S128"
target triple = "x86_64-pc-linux-gnu"

%struct.AVChannelLayout = type { i32, i32, %union.anon.0, ptr }
%union.anon.0 = type { i64 }
%struct.AVCodecContext = type { ptr, i32, i32, ptr, i32, i32, ptr, ptr, ptr, i64, i32, i32, ptr, i32, %struct.AVRational, %struct.AVRational, %struct.AVRational, i32, i32, i32, i32, i32, %struct.AVRational, i32, i32, i32, i32, i32, i32, i32, i32, i32, i32, i32, ptr, ptr, i32, float, float, float, float, float, float, float, float, float, i32, i32, i32, i32, i32, i32, i32, i32, i32, i32, i32, i32, ptr, ptr, ptr, i32, i32, i32, i32, i32, i32, i32, i32, i32, i32, %struct.AVChannelLayout, i32, i32, i32, i32, i32, i32, i32, i32, ptr, i32, i32, i32, float, float, i32, i32, i32, i32, i32, ptr, i64, i64, float, float, i32, i32, ptr, ptr, i32, i32, i32, i32, i32, ptr, ptr, ptr, ptr, i32, i32, [8 x i64], i32, i32, i32, i32, i32, i32, i32, ptr, ptr, i32, i32, i32, i32, i32, i32, i32, i32, i32, i32, ptr, ptr, i32, i32, ptr, ptr, ptr, ptr, i32, i32, i64, i32, i32, i64, ptr, i64, ptr, i32, ptr, i32 }
%struct.AVRational = type { i32, i32 }
%struct.IMCContext = type { [2 x %struct.IMCChannel], [256 x float], [30 x float], %struct.GetBitContext, ptr, %struct.BswapDSPContext, ptr, ptr, ptr, [8 x i8], [256 x float], i32, [32 x i8], [32 x i8], [31 x float], [31 x float], ptr, [8 x i8] }
%struct.IMCChannel = type { [32 x float], [32 x float], [32 x float], [32 x float], [32 x float], [32 x float], [32 x float], [256 x float], [32 x i32], [32 x i32], [256 x i32], [32 x i32], [32 x i32], [32 x i32], [32 x i32], [32 x i32], [32 x i32], [256 x i32], [256 x i32], i32, [12 x i8], [128 x float] }
%struct.GetBitContext = type { ptr, ptr, i32, i32, i32 }
%struct.BswapDSPContext = type { ptr, ptr }

@imc_decode_init.init_static_once = internal global i32 0, align 4
@.str.5 = private unnamed_addr constant [90 x i8] c"Strange sample rate of %i, file likely corrupt or needing a new table derivation method.\0A\00", align 1
@.str.6 = private unnamed_addr constant [23 x i8] c"Number of channels > 2\00", align 1
@cyclTab = internal constant [32 x i8] c"\01\02\03\04\05\06\07\08\09\0A\0B\0C\0D\0E\0F\10\11\12\14\15\16\17\18\19\1A\1B\1C\1D\1E\1F  ", align 16
@cyclTab2 = internal constant [32 x i8] c"\FF\00\01\02\03\04\05\06\07\08\09\0A\0B\0C\0D\0E\0F\10\11\11\12\13\14\15\16\17\18\19\1A\1B\1C\1D", align 16

; Function Attrs: cold nounwind optsize uwtable
define internal i32 @imc_decode_init(ptr noundef %0) #0 {
  %2 = alloca i32, align 4
  %3 = alloca ptr, align 8
  %4 = alloca i32, align 4
  %5 = alloca i32, align 4
  %6 = alloca i32, align 4
  %7 = alloca ptr, align 8
  %8 = alloca float, align 4
  %9 = alloca i32, align 4
  %10 = alloca %struct.AVChannelLayout, align 8
  store ptr %0, ptr %3, align 8, !tbaa !4
  call void @llvm.lifetime.start.p0(i64 4, ptr %4) #10
  call void @llvm.lifetime.start.p0(i64 4, ptr %5) #10
  call void @llvm.lifetime.start.p0(i64 4, ptr %6) #10
  call void @llvm.lifetime.start.p0(i64 8, ptr %7) #10
  %11 = load ptr, ptr %3, align 8, !tbaa !4
  %12 = getelementptr inbounds nuw %struct.AVCodecContext, ptr %11, i32 0, i32 6
  %13 = load ptr, ptr %12, align 8, !tbaa !9
  store ptr %13, ptr %7, align 8, !tbaa !29
  call void @llvm.lifetime.start.p0(i64 4, ptr %8) #10
  store float 0x3F10000000000000, ptr %8, align 4, !tbaa !31
  %14 = load ptr, ptr %3, align 8, !tbaa !4
  %15 = getelementptr inbounds nuw %struct.AVCodecContext, ptr %14, i32 0, i32 4
  %16 = load i32, ptr %15, align 8, !tbaa !32
  %17 = icmp eq i32 %16, 86074
  br i1 %17, label %18, label %28

18:                                               ; preds = %1
  %19 = load ptr, ptr %3, align 8, !tbaa !4
  %20 = getelementptr inbounds nuw %struct.AVCodecContext, ptr %19, i32 0, i32 69
  %21 = load i32, ptr %20, align 8, !tbaa !33
  %22 = icmp sgt i32 %21, 96000
  br i1 %22, label %23, label %28

23:                                               ; preds = %18
  %24 = load ptr, ptr %3, align 8, !tbaa !4
  %25 = load ptr, ptr %3, align 8, !tbaa !4
  %26 = getelementptr inbounds nuw %struct.AVCodecContext, ptr %25, i32 0, i32 69
  %27 = load i32, ptr %26, align 8, !tbaa !33
  call void (ptr, i32, ptr, ...) @av_log(ptr noundef %24, i32 noundef 16, ptr noundef @.str.5, i32 noundef %27)
  store i32 -1163346256, ptr %2, align 4
  store i32 1, ptr %9, align 4
  br label %175

28:                                               ; preds = %18, %1
  %29 = load ptr, ptr %3, align 8, !tbaa !4
  %30 = getelementptr inbounds nuw %struct.AVCodecContext, ptr %29, i32 0, i32 4
  %31 = load i32, ptr %30, align 8, !tbaa !32
  %32 = icmp eq i32 %31, 86043
  br i1 %32, label %33, label %42

33:                                               ; preds = %28
  %34 = load ptr, ptr %3, align 8, !tbaa !4
  %35 = getelementptr inbounds nuw %struct.AVCodecContext, ptr %34, i32 0, i32 71
  call void @av_channel_layout_uninit(ptr noundef %35)
  %36 = load ptr, ptr %3, align 8, !tbaa !4
  %37 = getelementptr inbounds nuw %struct.AVCodecContext, ptr %36, i32 0, i32 71
  %38 = getelementptr inbounds nuw %struct.AVChannelLayout, ptr %10, i32 0, i32 0
  store i32 1, ptr %38, align 8, !tbaa !34
  %39 = getelementptr inbounds nuw %struct.AVChannelLayout, ptr %10, i32 0, i32 1
  store i32 1, ptr %39, align 4, !tbaa !35
  %40 = getelementptr inbounds nuw %struct.AVChannelLayout, ptr %10, i32 0, i32 2
  store i64 4, ptr %40, align 8, !tbaa !36
  %41 = getelementptr inbounds nuw %struct.AVChannelLayout, ptr %10, i32 0, i32 3
  store ptr null, ptr %41, align 8, !tbaa !37
  call void @llvm.memcpy.p0.p0.i64(ptr align 8 %37, ptr align 8 %10, i64 24, i1 false), !tbaa.struct !38
  br label %42

42:                                               ; preds = %33, %28
  %43 = load ptr, ptr %3, align 8, !tbaa !4
  %44 = getelementptr inbounds nuw %struct.AVCodecContext, ptr %43, i32 0, i32 71
  %45 = getelementptr inbounds nuw %struct.AVChannelLayout, ptr %44, i32 0, i32 1
  %46 = load i32, ptr %45, align 4, !tbaa !41
  %47 = icmp sgt i32 %46, 2
  br i1 %47, label %48, label %50

48:                                               ; preds = %42
  %49 = load ptr, ptr %3, align 8, !tbaa !4
  call void (ptr, ptr, ...) @avpriv_request_sample(ptr noundef %49, ptr noundef @.str.6)
  store i32 -1163346256, ptr %2, align 4
  store i32 1, ptr %9, align 4
  br label %175

50:                                               ; preds = %42
  store i32 0, ptr %5, align 4, !tbaa !39
  br label %51

51:                                               ; preds = %82, %50
  %52 = load i32, ptr %5, align 4, !tbaa !39
  %53 = load ptr, ptr %3, align 8, !tbaa !4
  %54 = getelementptr inbounds nuw %struct.AVCodecContext, ptr %53, i32 0, i32 71
  %55 = getelementptr inbounds nuw %struct.AVChannelLayout, ptr %54, i32 0, i32 1
  %56 = load i32, ptr %55, align 4, !tbaa !41
  %57 = icmp slt i32 %52, %56
  br i1 %57, label %58, label %85

58:                                               ; preds = %51
  %59 = load ptr, ptr %7, align 8, !tbaa !29
  %60 = getelementptr inbounds nuw %struct.IMCContext, ptr %59, i32 0, i32 0
  %61 = load i32, ptr %5, align 4, !tbaa !39
  %62 = sext i32 %61 to i64
  %63 = getelementptr inbounds [2 x %struct.IMCChannel], ptr %60, i64 0, i64 %62
  %64 = getelementptr inbounds nuw %struct.IMCChannel, ptr %63, i32 0, i32 19
  store i32 1, ptr %64, align 16, !tbaa !42
  store i32 0, ptr %4, align 4, !tbaa !39
  br label %65

65:                                               ; preds = %78, %58
  %66 = load i32, ptr %4, align 4, !tbaa !39
  %67 = icmp slt i32 %66, 32
  br i1 %67, label %68, label %81

68:                                               ; preds = %65
  %69 = load ptr, ptr %7, align 8, !tbaa !29
  %70 = getelementptr inbounds nuw %struct.IMCContext, ptr %69, i32 0, i32 0
  %71 = load i32, ptr %5, align 4, !tbaa !39
  %72 = sext i32 %71 to i64
  %73 = getelementptr inbounds [2 x %struct.IMCChannel], ptr %70, i64 0, i64 %72
  %74 = getelementptr inbounds nuw %struct.IMCChannel, ptr %73, i32 0, i32 0
  %75 = load i32, ptr %4, align 4, !tbaa !39
  %76 = sext i32 %75 to i64
  %77 = getelementptr inbounds [32 x float], ptr %74, i64 0, i64 %76
  store float 1.000000e+00, ptr %77, align 4, !tbaa !31
  br label %78

78:                                               ; preds = %68
  %79 = load i32, ptr %4, align 4, !tbaa !39
  %80 = add nsw i32 %79, 1
  store i32 %80, ptr %4, align 4, !tbaa !39
  br label %65, !llvm.loop !44

81:                                               ; preds = %65
  br label %82

82:                                               ; preds = %81
  %83 = load i32, ptr %5, align 4, !tbaa !39
  %84 = add nsw i32 %83, 1
  store i32 %84, ptr %5, align 4, !tbaa !39
  br label %51, !llvm.loop !46

85:                                               ; preds = %51
  %86 = load ptr, ptr %7, align 8, !tbaa !29
  %87 = getelementptr inbounds nuw %struct.IMCContext, ptr %86, i32 0, i32 1
  %88 = getelementptr inbounds [256 x float], ptr %87, i64 0, i64 0
  call void @ff_sine_window_init(ptr noundef %88, i32 noundef 256)
  store i32 0, ptr %4, align 4, !tbaa !39
  br label %89

89:                                               ; preds = %103, %85
  %90 = load i32, ptr %4, align 4, !tbaa !39
  %91 = icmp slt i32 %90, 256
  br i1 %91, label %92, label %106

92:                                               ; preds = %89
  %93 = call nsz double @llvm.sqrt.f64(double 2.000000e+00)
  %94 = load ptr, ptr %7, align 8, !tbaa !29
  %95 = getelementptr inbounds nuw %struct.IMCContext, ptr %94, i32 0, i32 1
  %96 = load i32, ptr %4, align 4, !tbaa !39
  %97 = sext i32 %96 to i64
  %98 = getelementptr inbounds [256 x float], ptr %95, i64 0, i64 %97
  %99 = load float, ptr %98, align 4, !tbaa !31
  %100 = fpext nsz float %99 to double
  %101 = fmul nsz double %100, %93
  %102 = fptrunc nsz double %101 to float
  store float %102, ptr %98, align 4, !tbaa !31
  br label %103

103:                                              ; preds = %92
  %104 = load i32, ptr %4, align 4, !tbaa !39
  %105 = add nsw i32 %104, 1
  store i32 %105, ptr %4, align 4, !tbaa !39
  br label %89, !llvm.loop !47

106:                                              ; preds = %89
  store i32 0, ptr %4, align 4, !tbaa !39
  br label %107

107:                                              ; preds = %120, %106
  %108 = load i32, ptr %4, align 4, !tbaa !39
  %109 = icmp slt i32 %108, 30
  br i1 %109, label %110, label %123

110:                                              ; preds = %107
  %111 = load i32, ptr %4, align 4, !tbaa !39
  %112 = sitofp i32 %111 to double
  %113 = call nsz double @llvm.sqrt.f64(double %112)
  %114 = fptrunc nsz double %113 to float
  %115 = load ptr, ptr %7, align 8, !tbaa !29
  %116 = getelementptr inbounds nuw %struct.IMCContext, ptr %115, i32 0, i32 2
  %117 = load i32, ptr %4, align 4, !tbaa !39
  %118 = sext i32 %117 to i64
  %119 = getelementptr inbounds [30 x float], ptr %116, i64 0, i64 %118
  store float %114, ptr %119, align 4, !tbaa !31
  br label %120

120:                                              ; preds = %110
  %121 = load i32, ptr %4, align 4, !tbaa !39
  %122 = add nsw i32 %121, 1
  store i32 %122, ptr %4, align 4, !tbaa !39
  br label %107, !llvm.loop !48

123:                                              ; preds = %107
  %124 = load ptr, ptr %3, align 8, !tbaa !4
  %125 = getelementptr inbounds nuw %struct.AVCodecContext, ptr %124, i32 0, i32 4
  %126 = load i32, ptr %125, align 8, !tbaa !32
  %127 = icmp eq i32 %126, 86074
  br i1 %127, label %128, label %133

128:                                              ; preds = %123
  %129 = load ptr, ptr %7, align 8, !tbaa !29
  %130 = load ptr, ptr %3, align 8, !tbaa !4
  %131 = getelementptr inbounds nuw %struct.AVCodecContext, ptr %130, i32 0, i32 69
  %132 = load i32, ptr %131, align 8, !tbaa !33
  call void @iac_generate_tabs(ptr noundef %129, i32 noundef %132) #11
  br label %146

133:                                              ; preds = %123
  %134 = load ptr, ptr %7, align 8, !tbaa !29
  %135 = getelementptr inbounds nuw %struct.IMCContext, ptr %134, i32 0, i32 12
  %136 = getelementptr inbounds [32 x i8], ptr %135, i64 0, i64 0
  call void @llvm.memcpy.p0.p0.i64(ptr align 4 %136, ptr align 16 @cyclTab, i64 32, i1 false)
  %137 = load ptr, ptr %7, align 8, !tbaa !29
  %138 = getelementptr inbounds nuw %struct.IMCContext, ptr %137, i32 0, i32 13
  %139 = getelementptr inbounds [32 x i8], ptr %138, i64 0, i64 0
  call void @llvm.memcpy.p0.p0.i64(ptr align 4 %139, ptr align 16 @cyclTab2, i64 32, i1 false)
  %140 = load ptr, ptr %7, align 8, !tbaa !29
  %141 = getelementptr inbounds nuw %struct.IMCContext, ptr %140, i32 0, i32 14
  %142 = getelementptr inbounds [31 x float], ptr %141, i64 0, i64 0
  call void @llvm.memcpy.p0.p0.i64(ptr align 4 %142, ptr align 16 @imc_weights1, i64 124, i1 false)
  %143 = load ptr, ptr %7, align 8, !tbaa !29
  %144 = getelementptr inbounds nuw %struct.IMCContext, ptr %143, i32 0, i32 15
  %145 = getelementptr inbounds [31 x float], ptr %144, i64 0, i64 0
  call void @llvm.memcpy.p0.p0.i64(ptr align 16 %145, ptr align 16 @imc_weights2, i64 124, i1 false)
  br label %146

146:                                              ; preds = %133, %128
  %147 = load ptr, ptr %3, align 8, !tbaa !4
  %148 = getelementptr inbounds nuw %struct.AVCodecContext, ptr %147, i32 0, i32 10
  %149 = load i32, ptr %148, align 8, !tbaa !49
  %150 = and i32 %149, 8388608
  %151 = call ptr @avpriv_float_dsp_alloc(i32 noundef %150)
  %152 = load ptr, ptr %7, align 8, !tbaa !29
  %153 = getelementptr inbounds nuw %struct.IMCContext, ptr %152, i32 0, i32 4
  store ptr %151, ptr %153, align 8, !tbaa !50
  %154 = load ptr, ptr %7, align 8, !tbaa !29
  %155 = getelementptr inbounds nuw %struct.IMCContext, ptr %154, i32 0, i32 4
  %156 = load ptr, ptr %155, align 8, !tbaa !50
  %157 = icmp ne ptr %156, null
  br i1 %157, label %159, label %158

158:                                              ; preds = %146
  store i32 -12, ptr %2, align 4
  store i32 1, ptr %9, align 4
  br label %175

159:                                              ; preds = %146
  %160 = load ptr, ptr %7, align 8, !tbaa !29
  %161 = getelementptr inbounds nuw %struct.IMCContext, ptr %160, i32 0, i32 6
  %162 = load ptr, ptr %7, align 8, !tbaa !29
  %163 = getelementptr inbounds nuw %struct.IMCContext, ptr %162, i32 0, i32 7
  %164 = call i32 @av_tx_init(ptr noundef %161, ptr noundef %163, i32 noundef 1, i32 noundef 1, i32 noundef 256, ptr noundef %8, i64 noundef 0)
  store i32 %164, ptr %6, align 4, !tbaa !39
  %165 = load i32, ptr %6, align 4, !tbaa !39
  %166 = icmp slt i32 %165, 0
  br i1 %166, label %167, label %169

167:                                              ; preds = %159
  %168 = load i32, ptr %6, align 4, !tbaa !39
  store i32 %168, ptr %2, align 4
  store i32 1, ptr %9, align 4
  br label %175

169:                                              ; preds = %159
  %170 = load ptr, ptr %7, align 8, !tbaa !29
  %171 = getelementptr inbounds nuw %struct.IMCContext, ptr %170, i32 0, i32 5
  call void @ff_bswapdsp_init(ptr noundef %171)
  %172 = load ptr, ptr %3, align 8, !tbaa !4
  %173 = getelementptr inbounds nuw %struct.AVCodecContext, ptr %172, i32 0, i32 70
  store i32 8, ptr %173, align 4, !tbaa !57
  %174 = call i32 @pthread_once(ptr noundef @imc_decode_init.init_static_once, ptr noundef @imc_init_static)
  store i32 0, ptr %2, align 4
  store i32 1, ptr %9, align 4
  br label %175

175:                                              ; preds = %169, %167, %158, %48, %23
  call void @llvm.lifetime.end.p0(i64 4, ptr %8) #10
  call void @llvm.lifetime.end.p0(i64 8, ptr %7) #10
  call void @llvm.lifetime.end.p0(i64 4, ptr %6) #10
  call void @llvm.lifetime.end.p0(i64 4, ptr %5) #10
  call void @llvm.lifetime.end.p0(i64 4, ptr %4) #10
  %176 = load i32, ptr %2, align 4
  ret i32 %176
}