; Function Attrs: cold nounwind optsize uwtable
define internal range(i32 -2147483648, 1) i32 @imc_decode_init(ptr noundef %0) #0 {
  %2 = alloca float, align 4
  %3 = getelementptr inbounds nuw i8, ptr %0, i64 32
  %4 = load ptr, ptr %3, align 8, !tbaa !4
  call void @llvm.lifetime.start.p0(i64 4, ptr nonnull %2) #10
  store float 0x3F10000000000000, ptr %2, align 4, !tbaa !27
  %5 = getelementptr inbounds nuw i8, ptr %0, i64 24
  %6 = load i32, ptr %5, align 8, !tbaa !28
  switch i32 %6, label %.thread [
    i32 86074, label %7
    i32 86043, label %12
  ]

7:                                                ; preds = %1
  %8 = getelementptr inbounds nuw i8, ptr %0, i64 344
  %9 = load i32, ptr %8, align 8, !tbaa !29
  %10 = icmp sgt i32 %9, 96000
  br i1 %10, label %11, label %.thread

11:                                               ; preds = %7
  tail call void (ptr, i32, ptr, ...) @av_log(ptr noundef nonnull %0, i32 noundef 16, ptr noundef nonnull @.str.5, i32 noundef %9) #10
  br label %64

12:                                               ; preds = %1
  %13 = getelementptr inbounds nuw i8, ptr %0, i64 352
  tail call void @av_channel_layout_uninit(ptr noundef nonnull %13) #10
  store i32 1, ptr %13, align 8, !tbaa !30
  %.sroa.2.0..sroa_idx = getelementptr inbounds nuw i8, ptr %0, i64 356
  store i32 1, ptr %.sroa.2.0..sroa_idx, align 4, !tbaa !30
  %.sroa.3.0..sroa_idx = getelementptr inbounds nuw i8, ptr %0, i64 360
  store i64 4, ptr %.sroa.3.0..sroa_idx, align 8, !tbaa !31
  %.sroa.4.0..sroa_idx = getelementptr inbounds nuw i8, ptr %0, i64 368
  store ptr null, ptr %.sroa.4.0..sroa_idx, align 8, !tbaa !32
  br label %.thread

.thread:                                          ; preds = %1, %7, %12
  %14 = getelementptr inbounds nuw i8, ptr %0, i64 356
  %15 = load i32, ptr %14, align 4, !tbaa !33
  %16 = icmp sgt i32 %15, 2
  br i1 %16, label %18, label %.preheader50

.preheader50:                                     ; preds = %.thread
  %17 = icmp sgt i32 %15, 0
  br i1 %17, label %.lr.ph.preheader, label %._crit_edge

.lr.ph.preheader:                                 ; preds = %.preheader50
  %wide.trip.count = zext nneg i32 %15 to i64
  br label %.lr.ph

18:                                               ; preds = %.thread
  tail call void (ptr, ptr, ...) @avpriv_request_sample(ptr noundef nonnull %0, ptr noundef nonnull @.str.6) #10
  br label %64

.lr.ph:                                           ; preds = %.lr.ph.preheader, %23
  %indvars.iv56 = phi i64 [ 0, %.lr.ph.preheader ], [ %indvars.iv.next57, %23 ]
  %19 = getelementptr inbounds nuw [2 x %struct.IMCChannel], ptr %4, i64 0, i64 %indvars.iv56
  %20 = getelementptr inbounds nuw i8, ptr %19, i64 6016
  store i32 1, ptr %20, align 16, !tbaa !34
  br label %21

21:                                               ; preds = %.lr.ph, %21
  %indvars.iv = phi i64 [ 0, %.lr.ph ], [ %indvars.iv.next, %21 ]
  %22 = getelementptr inbounds nuw [32 x float], ptr %19, i64 0, i64 %indvars.iv
  store float 1.000000e+00, ptr %22, align 4, !tbaa !27
  %indvars.iv.next = add nuw nsw i64 %indvars.iv, 1
  %exitcond.not = icmp eq i64 %indvars.iv.next, 32
  br i1 %exitcond.not, label %23, label %21, !llvm.loop !36

23:                                               ; preds = %21
  %indvars.iv.next57 = add nuw nsw i64 %indvars.iv56, 1
  %exitcond59.not = icmp eq i64 %indvars.iv.next57, %wide.trip.count
  br i1 %exitcond59.not, label %._crit_edge, label %.lr.ph, !llvm.loop !38

._crit_edge:                                      ; preds = %23, %.preheader50
  %24 = getelementptr inbounds nuw i8, ptr %4, i64 13088
  tail call void @ff_sine_window_init(ptr noundef nonnull %24, i32 noundef 256) #10
  br label %26

.preheader:                                       ; preds = %26
  %25 = getelementptr inbounds nuw i8, ptr %4, i64 14112
  br label %32

26:                                               ; preds = %._crit_edge, %26
  %indvars.iv60 = phi i64 [ 0, %._crit_edge ], [ %indvars.iv.next61, %26 ]
  %27 = getelementptr inbounds nuw [256 x float], ptr %24, i64 0, i64 %indvars.iv60
  %28 = load float, ptr %27, align 4, !tbaa !27
  %29 = fpext nsz float %28 to double
  %30 = fmul nsz double %29, 0x3FF6A09E667F3BCD
  %31 = fptrunc nsz double %30 to float
  store float %31, ptr %27, align 4, !tbaa !27
  %indvars.iv.next61 = add nuw nsw i64 %indvars.iv60, 1
  %exitcond63.not = icmp eq i64 %indvars.iv.next61, 256
  br i1 %exitcond63.not, label %.preheader, label %26, !llvm.loop !39

32:                                               ; preds = %.preheader, %32
  %indvars.iv64 = phi i64 [ 0, %.preheader ], [ %indvars.iv.next65, %32 ]
  %33 = trunc nuw nsw i64 %indvars.iv64 to i32
  %34 = uitofp nneg i32 %33 to double
  %35 = tail call nsz double @llvm.sqrt.f64(double %34)
  %36 = fptrunc nsz double %35 to float
  %37 = getelementptr inbounds nuw [30 x float], ptr %25, i64 0, i64 %indvars.iv64
  store float %36, ptr %37, align 4, !tbaa !27
  %indvars.iv.next65 = add nuw nsw i64 %indvars.iv64, 1
  %exitcond67.not = icmp eq i64 %indvars.iv.next65, 30
  br i1 %exitcond67.not, label %38, label %32, !llvm.loop !40

38:                                               ; preds = %32
  %39 = load i32, ptr %5, align 8, !tbaa !28
  %40 = icmp eq i32 %39, 86074
  br i1 %40, label %41, label %44

41:                                               ; preds = %38
  %42 = getelementptr inbounds nuw i8, ptr %0, i64 344
  %43 = load i32, ptr %42, align 8, !tbaa !29
  tail call fastcc void @iac_generate_tabs(ptr noundef nonnull %4, i32 noundef %43) #11
  br label %49

44:                                               ; preds = %38
  %45 = getelementptr inbounds nuw i8, ptr %4, i64 15348
  tail call void @llvm.memcpy.p0.p0.i64(ptr noundef nonnull align 4 dereferenceable(32) %45, ptr noundef nonnull align 16 dereferenceable(32) @cyclTab, i64 32, i1 false)
  %46 = getelementptr inbounds nuw i8, ptr %4, i64 15380
  tail call void @llvm.memcpy.p0.p0.i64(ptr noundef nonnull align 4 dereferenceable(32) %46, ptr noundef nonnull align 16 dereferenceable(32) @cyclTab2, i64 32, i1 false)
  %47 = getelementptr inbounds nuw i8, ptr %4, i64 15412
  tail call void @llvm.memcpy.p0.p0.i64(ptr noundef nonnull align 4 dereferenceable(124) %47, ptr noundef nonnull align 16 dereferenceable(124) @imc_weights1, i64 124, i1 false)
  %48 = getelementptr inbounds nuw i8, ptr %4, i64 15536
  tail call void @llvm.memcpy.p0.p0.i64(ptr noundef nonnull align 16 dereferenceable(124) %48, ptr noundef nonnull align 16 dereferenceable(124) @imc_weights2, i64 124, i1 false)
  br label %49

49:                                               ; preds = %44, %41
  %50 = getelementptr inbounds nuw i8, ptr %0, i64 64
  %51 = load i32, ptr %50, align 8, !tbaa !41
  %52 = and i32 %51, 8388608
  %53 = tail call ptr @avpriv_float_dsp_alloc(i32 noundef %52) #10
  %54 = getelementptr inbounds nuw i8, ptr %4, i64 14264
  store ptr %53, ptr %54, align 8, !tbaa !42
  %.not = icmp eq ptr %53, null
  br i1 %.not, label %64, label %55

55:                                               ; preds = %49
  %56 = getelementptr inbounds nuw i8, ptr %4, i64 14288
  %57 = getelementptr inbounds nuw i8, ptr %4, i64 14296
  %58 = call i32 @av_tx_init(ptr noundef nonnull %56, ptr noundef nonnull %57, i32 noundef 1, i32 noundef 1, i32 noundef 256, ptr noundef nonnull %2, i64 noundef 0) #10
  %59 = icmp slt i32 %58, 0
  br i1 %59, label %64, label %60

60:                                               ; preds = %55
  %61 = getelementptr inbounds nuw i8, ptr %4, i64 14272
  call void @ff_bswapdsp_init(ptr noundef nonnull %61) #10
  %62 = getelementptr inbounds nuw i8, ptr %0, i64 348
  store i32 8, ptr %62, align 4, !tbaa !50
  %63 = call i32 @pthread_once(ptr noundef nonnull @imc_decode_init.init_static_once, ptr noundef nonnull @imc_init_static) #10
  br label %64

64:                                               ; preds = %55, %49, %60, %18, %11
  %.0 = phi i32 [ -1163346256, %11 ], [ -1163346256, %18 ], [ 0, %60 ], [ -12, %49 ], [ %58, %55 ]
  call void @llvm.lifetime.end.p0(i64 4, ptr nonnull %2) #10
  ret i32 %.0
}